(lp0
ccopy_reg
_reconstructor
p1
(cgeometry_msgs.msg._PointStamped
PointStamped
p2
c__builtin__
object
p3
Ntp4
Rp5
(lp6
g1
(cstd_msgs.msg._Header
Header
p7
g3
Ntp8
Rp9
(lp10
I0
ag1
(crospy.rostime
Time
p11
g3
Ntp12
Rp13
(lp14
I1677161758
aI13967037
abaS'xtion_rgb_optical_frame'
p15
abag1
(cgeometry_msgs.msg._Point
Point
p16
g3
Ntp17
Rp18
(lp19
cnumpy.core.multiarray
scalar
p20
(cnumpy
dtype
p21
(S'f8'
p22
I0
I1
tp23
Rp24
(I3
S'<'
p25
NNNI-1
I-1
I0
tp26
bS'\x00\x00\x00\xa0r\x80\xcb\xbf'
p27
tp28
Rp29
ag20
(g24
S'\x00\x00\x00\xc0u\xa1\xcd\xbf'
p30
tp31
Rp32
ag20
(g24
S'\x00\x00\x00\xa0\x9b\xc4\xe8?'
p33
tp34
Rp35
ababag1
(g2
g3
Ntp36
Rp37
(lp38
g1
(g7
g3
Ntp39
Rp40
(lp41
I0
ag1
(g11
g3
Ntp42
Rp43
(lp44
I1677161758
aI13982057
abag15
abag1
(g16
g3
Ntp45
Rp46
(lp47
g20
(g24
S'\x00\x00\x00\xa0\x18\x96\xc4\xbf'
p48
tp49
Rp50
ag20
(g24
S'\x00\x00\x00@\xeb\xa9\xcd\xbf'
p51
tp52
Rp53
ag20
(g24
S'\x00\x00\x00\x00\xd7\xa3\xe8?'
p54
tp55
Rp56
ababag1
(g2
g3
Ntp57
Rp58
(lp59
g1
(g7
g3
Ntp60
Rp61
(lp62
I0
ag1
(g11
g3
Ntp63
Rp64
(lp65
I1677161758
aI13991117
abag15
abag1
(g16
g3
Ntp66
Rp67
(lp68
g20
(g24
S'\x00\x00\x00`\xb4\x84\xbb\xbf'
p69
tp70
Rp71
ag20
(g24
S'\x00\x00\x00\xa0\xce\xbb\xcd\xbf'
p72
tp73
Rp74
ag20
(g24
S'\x00\x00\x00\xa0C\x8b\xe8?'
p75
tp76
Rp77
ababag1
(g2
g3
Ntp78
Rp79
(lp80
g1
(g7
g3
Ntp81
Rp82
(lp83
I0
ag1
(g11
g3
Ntp84
Rp85
(lp86
I1677161758
aI13999938
abag15
abag1
(g16
g3
Ntp87
Rp88
(lp89
g20
(g24
S'\x00\x00\x00 \x1e\xe7\xab\xbf'
p90
tp91
Rp92
ag20
(g24
S'\x00\x00\x00`V\xc3\xcd\xbf'
p93
tp94
Rp95
ag20
(g24
S'\x00\x00\x00\x00\x7fj\xe8?'
p96
tp97
Rp98
ababag1
(g2
g3
Ntp99
Rp100
(lp101
g1
(g7
g3
Ntp102
Rp103
(lp104
I0
ag1
(g11
g3
Ntp105
Rp106
(lp107
I1677161758
aI14009952
abag15
abag1
(g16
g3
Ntp108
Rp109
(lp110
g20
(g24
S'\x00\x00\x00\x00y\xe6C\xbf'
p111
tp112
Rp113
ag20
(g24
S'\x00\x00\x00\x00\xa9\x06\xce\xbf'
p114
tp115
Rp116
ag20
(g24
S'\x00\x00\x00@\xe1z\xe8?'
p117
tp118
Rp119
ababag1
(g2
g3
Ntp120
Rp121
(lp122
g1
(g7
g3
Ntp123
Rp124
(lp125
I0
ag1
(g11
g3
Ntp126
Rp127
(lp128
I1677161758
aI14019012
abag15
abag1
(g16
g3
Ntp129
Rp130
(lp131
g20
(g24
S'\x00\x00\x00\xa0\xa3Z\xab?'
p132
tp133
Rp134
ag20
(g24
S'\x00\x00\x00\xc0\x026\xce\xbf'
p135
tp136
Rp137
ag20
(g24
S'\x00\x00\x00@\xe1z\xe8?'
p138
tp139
Rp140
ababag1
(g2
g3
Ntp141
Rp142
(lp143
g1
(g7
g3
Ntp144
Rp145
(lp146
I0
ag1
(g11
g3
Ntp147
Rp148
(lp149
I1677161758
aI14028072
abag15
abag1
(g16
g3
Ntp150
Rp151
(lp152
g20
(g24
S'\x00\x00\x00\x80p\x82\xbb?'
p153
tp154
Rp155
ag20
(g24
S'\x00\x00\x00\xc0\x026\xce\xbf'
p156
tp157
Rp158
ag20
(g24
S'\x00\x00\x00@\xe1z\xe8?'
p159
tp160
Rp161
ababag1
(g2
g3
Ntp162
Rp163
(lp164
g1
(g7
g3
Ntp165
Rp166
(lp167
I0
ag1
(g11
g3
Ntp168
Rp169
(lp170
I1677161758
aI14035940
abag15
abag1
(g16
g3
Ntp171
Rp172
(lp173
g20
(g24
S'\x00\x00\x00\x801\x89\xc4?'
p174
tp175
Rp176
ag20
(g24
S'\x00\x00\x00 v\x03\xce\xbf'
p177
tp178
Rp179
ag20
(g24
S'\x00\x00\x00\x80\xebQ\xe8?'
p180
tp181
Rp182
ababag1
(g2
g3
Ntp183
Rp184
(lp185
g1
(g7
g3
Ntp186
Rp187
(lp188
I0
ag1
(g11
g3
Ntp189
Rp190
(lp191
I1677161758
aI14044046
abag15
abag1
(g16
g3
Ntp192
Rp193
(lp194
g20
(g24
S'\x00\x00\x00\xc0pE\xcb\xbf'
p195
tp196
Rp197
ag20
(g24
S'\x00\x00\x00\x80\xab\xeb\xc7\xbf'
p198
tp199
Rp200
ag20
(g24
S'\x00\x00\x00\xc0v\xbe\xe7?'
p201
tp202
Rp203
ababag1
(g2
g3
Ntp204
Rp205
(lp206
g1
(g7
g3
Ntp207
Rp208
(lp209
I0
ag1
(g11
g3
Ntp210
Rp211
(lp212
I1677161758
aI14053106
abag15
abag1
(g16
g3
Ntp213
Rp214
(lp215
g20
(g24
S'\x00\x00\x00`\xd4z\xc4\xbf'
p216
tp217
Rp218
ag20
(g24
S'\x00\x00\x00@\xe9\xd2\xc7\xbf'
p219
tp220
Rp221
ag20
(g24
S'\x00\x00\x00`\xe3\xa5\xe7?'
p222
tp223
Rp224
ababag1
(g2
g3
Ntp225
Rp226
(lp227
g1
(g7
g3
Ntp228
Rp229
(lp230
I0
ag1
(g11
g3
Ntp231
Rp232
(lp233
I1677161758
aI14061927
abag15
abag1
(g16
g3
Ntp234
Rp235
(lp236
g20
(g24
S'\x00\x00\x00\x006|\xbb\xbf'
p237
tp238
Rp239
ag20
(g24
S'\x00\x00\x00@\xb5\xe7\xc7\xbf'
p240
tp241
Rp242
ag20
(g24
S'\x00\x00\x00\xe0O\x8d\xe7?'
p243
tp244
Rp245
ababag1
(g2
g3
Ntp246
Rp247
(lp248
g1
(g7
g3
Ntp249
Rp250
(lp251
I0
ag1
(g11
g3
Ntp252
Rp253
(lp254
I1677161758
aI14070034
abag15
abag1
(g16
g3
Ntp255
Rp256
(lp257
g20
(g24
S'\x00\x00\x00\xa0\x80\xa2\xab\xbf'
p258
tp259
Rp260
ag20
(g24
S'\x00\x00\x00\xa0C\x15\xc8\xbf'
p261
tp262
Rp263
ag20
(g24
S'\x00\x00\x00\xe0O\x8d\xe7?'
p264
tp265
Rp266
ababag1
(g2
g3
Ntp267
Rp268
(lp269
g1
(g7
g3
Ntp270
Rp271
(lp272
I0
ag1
(g11
g3
Ntp273
Rp274
(lp275
I1677161758
aI14079093
abag15
abag1
(g16
g3
Ntp276
Rp277
(lp278
g20
(g24
S'\x00\x00\x00\x80\xe9\xd1J?'
p279
tp280
Rp281
ag20
(g24
S'\x00\x00\x00`\xf11\xc8\xbf'
p282
tp283
Rp284
ag20
(g24
S'\x00\x00\x00\xa0\xed|\xe7?'
p285
tp286
Rp287
ababag1
(g2
g3
Ntp288
Rp289
(lp290
g1
(g7
g3
Ntp291
Rp292
(lp293
I0
ag1
(g11
g3
Ntp294
Rp295
(lp296
I1677161758
aI14086961
abag15
abag1
(g16
g3
Ntp297
Rp298
(lp299
g20
(g24
S'\x00\x00\x00\xe0.\xae\xab?'
p300
tp301
Rp302
ag20
(g24
S'\x00\x00\x00\x00`_\xc8\xbf'
p303
tp304
Rp305
ag20
(g24
S'\x00\x00\x00\xa0\xed|\xe7?'
p306
tp307
Rp308
ababag1
(g2
g3
Ntp309
Rp310
(lp311
g1
(g7
g3
Ntp312
Rp313
(lp314
I0
ag1
(g11
g3
Ntp315
Rp316
(lp317
I1677161758
aI14096021
abag15
abag1
(g16
g3
Ntp318
Rp319
(lp320
g20
(g24
S'\x00\x00\x00\x00\x8bx\xbb?'
p321
tp322
Rp323
ag20
(g24
S'\x00\x00\x00\x80\xce\x8c\xc8\xbf'
p324
tp325
Rp326
ag20
(g24
S'\x00\x00\x00\xa0\xed|\xe7?'
p327
tp328
Rp329
ababag1
(g2
g3
Ntp330
Rp331
(lp332
g1
(g7
g3
Ntp333
Rp334
(lp335
I0
ag1
(g11
g3
Ntp336
Rp337
(lp338
I1677161758
aI14103889
abag15
abag1
(g16
g3
Ntp339
Rp340
(lp341
g20
(g24
S'\x00\x00\x00@\xae\xb3\xc4?'
p342
tp343
Rp344
ag20
(g24
S'\x00\x00\x00`>\x84\xc8\xbf'
p345
tp346
Rp347
ag20
(g24
S'\x00\x00\x00`\xbct\xe7?'
p348
tp349
Rp350
ababag1
(g2
g3
Ntp351
Rp352
(lp353
g1
(g7
g3
Ntp354
Rp355
(lp356
I0
ag1
(g11
g3
Ntp357
Rp358
(lp359
I1677161758
aI14111995
abag15
abag1
(g16
g3
Ntp360
Rp361
(lp362
g20
(g24
S'\x00\x00\x00\x00>O\xcb\xbf'
p363
tp364
Rp365
ag20
(g24
S'\x00\x00\x00\xe0 \xe9\xc1\xbf'
p366
tp367
Rp368
ag20
(g24
S'\x00\x00\x00\xe0Q\xb8\xe6?'
p369
tp370
Rp371
ababag1
(g2
g3
Ntp372
Rp373
(lp374
g1
(g7
g3
Ntp375
Rp376
(lp377
I0
ag1
(g11
g3
Ntp378
Rp379
(lp380
I1677161758
aI14121055
abag15
abag1
(g16
g3
Ntp381
Rp382
(lp383
g20
(g24
S'\x00\x00\x00\xc0\xbe\x83\xc4\xbf'
p384
tp385
Rp386
ag20
(g24
S'\x00\x00\x00\xa0p:\xc2\xbf'
p387
tp388
Rp389
ag20
(g24
S'\x00\x00\x00\xc0 \xb0\xe6?'
p390
tp391
Rp392
ababag1
(g2
g3
Ntp393
Rp394
(lp395
g1
(g7
g3
Ntp396
Rp397
(lp398
I0
ag1
(g11
g3
Ntp399
Rp400
(lp401
I1677161758
aI14130115
abag15
abag1
(g16
g3
Ntp402
Rp403
(lp404
g20
(g24
S'\x00\x00\x00 \x83R\xbb\xbf'
p405
tp406
Rp407
ag20
(g24
S'\x00\x00\x00 \x1bE\xc2\xbf'
p408
tp409
Rp410
ag20
(g24
S'\x00\x00\x00\x00+\x87\xe6?'
p411
tp412
Rp413
ababag1
(g2
g3
Ntp414
Rp415
(lp416
g1
(g7
g3
Ntp417
Rp418
(lp419
I0
ag1
(g11
g3
Ntp420
Rp421
(lp422
I1677161758
aI14138936
abag15
abag1
(g16
g3
Ntp423
Rp424
(lp425
g20
(g24
S'\x00\x00\x00\x80\x10\x1f\xab\xbf'
p426
tp427
Rp428
ag20
(g24
S'\x00\x00\x00`\xaep\xc2\xbf'
p429
tp430
Rp431
ag20
(g24
S'\x00\x00\x00\x00+\x87\xe6?'
p432
tp433
Rp434
ababag1
(g2
g3
Ntp435
Rp436
(lp437
g1
(g7
g3
Ntp438
Rp439
(lp440
I0
ag1
(g11
g3
Ntp441
Rp442
(lp443
I1677161758
aI14147043
abag15
abag1
(g16
g3
Ntp444
Rp445
(lp446
g20
(g24
S'\x00\x00\x00\xc0\x94\xa6I?'
p447
tp448
Rp449
ag20
(g24
S'\x00\x00\x00\xa0\xb8\x8e\xc2\xbf'
p450
tp451
Rp452
ag20
(g24
S'\x00\x00\x00\xc0\xc8v\xe6?'
p453
tp454
Rp455
ababag1
(g2
g3
Ntp456
Rp457
(lp458
g1
(g7
g3
Ntp459
Rp460
(lp461
I0
ag1
(g11
g3
Ntp462
Rp463
(lp464
I1677161758
aI14154911
abag15
abag1
(g16
g3
Ntp465
Rp466
(lp467
g20
(g24
S'\x00\x00\x00`\xb3\xe2\xab?'
p468
tp469
Rp470
ag20
(g24
S'\x00\x00\x00 }\x95\xc2\xbf'
p471
tp472
Rp473
ag20
(g24
S'\x00\x00\x00\xe0\xf9~\xe6?'
p474
tp475
Rp476
ababag1
(g2
g3
Ntp477
Rp478
(lp479
g1
(g7
g3
Ntp480
Rp481
(lp482
I0
ag1
(g11
g3
Ntp483
Rp484
(lp485
I1677161758
aI14163970
abag15
abag1
(g16
g3
Ntp486
Rp487
(lp488
g20
(g24
S'\x00\x00\x00\x80>\xa5\xbb?'
p489
tp490
Rp491
ag20
(g24
S'\x00\x00\x00@,\xba\xc2\xbf'
p492
tp493
Rp494
ag20
(g24
S'\x00\x00\x00\xc0\xc8v\xe6?'
p495
tp496
Rp497
ababag1
(g2
g3
Ntp498
Rp499
(lp500
g1
(g7
g3
Ntp501
Rp502
(lp503
I0
ag1
(g11
g3
Ntp504
Rp505
(lp506
I1677161758
aI14172077
abag15
abag1
(g16
g3
Ntp507
Rp508
(lp509
g20
(g24
S'\x00\x00\x00\xc0\x1b\xaf\xc4?'
p510
tp511
Rp512
ag20
(g24
S'\x00\x00\x00@,\xba\xc2\xbf'
p513
tp514
Rp515
ag20
(g24
S'\x00\x00\x00\xc0\xc8v\xe6?'
p516
tp517
Rp518
ababag1
(g2
g3
Ntp519
Rp520
(lp521
g1
(g7
g3
Ntp522
Rp523
(lp524
I0
ag1
(g11
g3
Ntp525
Rp526
(lp527
I1677161758
aI14180898
abag15
abag1
(g16
g3
Ntp528
Rp529
(lp530
g20
(g24
S'\x00\x00\x00\xc0\xdf[\xcb\xbf'
p531
tp532
Rp533
ag20
(g24
S'\x00\x00\x00\xc06#\xb9\xbf'
p534
tp535
Rp536
ag20
(g24
S'\x00\x00\x00\x80\xc0\xca\xe5?'
p537
tp538
Rp539
ababag1
(g2
g3
Ntp540
Rp541
(lp542
g1
(g7
g3
Ntp543
Rp544
(lp545
I0
ag1
(g11
g3
Ntp546
Rp547
(lp548
I1677161758
aI14189004
abag15
abag1
(g16
g3
Ntp549
Rp550
(lp551
g20
(g24
S'\x00\x00\x00\xa0,r\xc4\xbf'
p552
tp553
Rp554
ag20
(g24
S'\x00\x00\x00`\xdd\x06\xb9\xbf'
p555
tp556
Rp557
ag20
(g24
S'\x00\x00\x00\x00-\xb2\xe5?'
p558
tp559
Rp560
ababag1
(g2
g3
Ntp561
Rp562
(lp563
g1
(g7
g3
Ntp564
Rp565
(lp566
I0
ag1
(g11
g3
Ntp567
Rp568
(lp569
I1677161758
aI14218091
abag15
abag1
(g16
g3
Ntp570
Rp571
(lp572
g20
(g24
S'\x00\x00\x00\xc0XD\xbb\xbf'
p573
tp574
Rp575
ag20
(g24
S'\x00\x00\x00 9Q\xb9\xbf'
p576
tp577
Rp578
ag20
(g24
S'\x00\x00\x00\xe0\xfb\xa9\xe5?'
p579
tp580
Rp581
ababag1
(g2
g3
Ntp582
Rp583
(lp584
g1
(g7
g3
Ntp585
Rp586
(lp587
I0
ag1
(g11
g3
Ntp588
Rp589
(lp590
I1677161758
aI14226913
abag15
abag1
(g16
g3
Ntp591
Rp592
(lp593
g20
(g24
S'\x00\x00\x00\xa0\xb9\x95\xaa\xbf'
p594
tp595
Rp596
ag20
(g24
S'\x00\x00\x00\xc0=~\xb9\xbf'
p597
tp598
Rp599
ag20
(g24
S'\x00\x00\x00@7\x89\xe5?'
p600
tp601
Rp602
ababag1
(g2
g3
Ntp603
Rp604
(lp605
g1
(g7
g3
Ntp606
Rp607
(lp608
I0
ag1
(g11
g3
Ntp609
Rp610
(lp611
I1677161758
aI14244079
abag15
abag1
(g16
g3
Ntp612
Rp613
(lp614
g20
(g24
S'\x00\x00\x00 \xf5\x8dH?'
p615
tp616
Rp617
ag20
(g24
S'\x00\x00\x00\xc0\xbb\xc7\xb9\xbf'
p618
tp619
Rp620
ag20
(g24
S'\x00\x00\x00 \x06\x81\xe5?'
p621
tp622
Rp623
ababag1
(g2
g3
Ntp624
Rp625
(lp626
g1
(g7
g3
Ntp627
Rp628
(lp629
I0
ag1
(g11
g3
Ntp630
Rp631
(lp632
I1677161758
aI14254093
abag15
abag1
(g16
g3
Ntp633
Rp634
(lp635
g20
(g24
S'\x00\x00\x00\xe00\xf8\xab?'
p636
tp637
Rp638
ag20
(g24
S'\x00\x00\x00\xc0\xbb\xc7\xb9\xbf'
p639
tp640
Rp641
ag20
(g24
S'\x00\x00\x00 \x06\x81\xe5?'
p642
tp643
Rp644
ababag1
(g2
g3
Ntp645
Rp646
(lp647
g1
(g7
g3
Ntp648
Rp649
(lp650
I0
ag1
(g11
g3
Ntp651
Rp652
(lp653
I1677161758
aI14262914
abag15
abag1
(g16
g3
Ntp654
Rp655
(lp656
g20
(g24
S'\x00\x00\x00@V\xa7\xbb?'
p657
tp658
Rp659
ag20
(g24
S'\x00\x00\x00\xa0\x16\xfd\xb9\xbf'
p660
tp661
Rp662
ag20
(g24
S'\x00\x00\x00\xc0rh\xe5?'
p663
tp664
Rp665
ababag1
(g2
g3
Ntp666
Rp667
(lp668
g1
(g7
g3
Ntp669
Rp670
(lp671
I0
ag1
(g11
g3
Ntp672
Rp673
(lp674
I1677161758
aI14271020
abag15
abag1
(g16
g3
Ntp675
Rp676
(lp677
g20
(g24
S'\x00\x00\x00\xc0\x08\xc9\xc4?'
p678
tp679
Rp680
ag20
(g24
S'\x00\x00\x00`\x1cn\xba\xbf'
p681
tp682
Rp683
ag20
(g24
S'\x00\x00\x00 \x06\x81\xe5?'
p684
tp685
Rp686
ababag1
(g2
g3
Ntp687
Rp688
(lp689
g1
(g7
g3
Ntp690
Rp691
(lp692
I0
ag1
(g11
g3
Ntp693
Rp694
(lp695
I1677161758
aI14280080
abag15
abag1
(g16
g3
Ntp696
Rp697
(lp698
g20
(g24
S'\x00\x00\x00\x00\xc1L\xcb\xbf'
p699
tp700
Rp701
ag20
(g24
S'\x00\x00\x00\x80\xf0\x87\xaa\xbf'
p702
tp703
Rp704
ag20
(g24
S'\x00\x00\x00\x80j\xbc\xe4?'
p705
tp706
Rp707
ababag1
(g2
g3
Ntp708
Rp709
(lp710
g1
(g7
g3
Ntp711
Rp712
(lp713
I0
ag1
(g11
g3
Ntp714
Rp715
(lp716
I1677161758
aI14287948
abag15
abag1
(g16
g3
Ntp717
Rp718
(lp719
g20
(g24
S'\x00\x00\x00\xe0\x96m\xc4\xbf'
p720
tp721
Rp722
ag20
(g24
S'\x00\x00\x00\xe0\xea\x12\xab\xbf'
p723
tp724
Rp725
ag20
(g24
S'\x00\x00\x00@\x08\xac\xe4?'
p726
tp727
Rp728
ababag1
(g2
g3
Ntp729
Rp730
(lp731
g1
(g7
g3
Ntp732
Rp733
(lp734
I0
ag1
(g11
g3
Ntp735
Rp736
(lp737
I1677161758
aI14297008
abag15
abag1
(g16
g3
Ntp738
Rp739
(lp740
g20
(g24
S'\x00\x00\x00@\xcc\xe1\xba\xbf'
p741
tp742
Rp743
ag20
(g24
S'\x00\x00\x00\x80\xe7\x9c\xab\xbf'
p744
tp745
Rp746
ag20
(g24
S'\x00\x00\x00\xe0\xa5\x9b\xe4?'
p747
tp748
Rp749
ababag1
(g2
g3
Ntp750
Rp751
(lp752
g1
(g7
g3
Ntp753
Rp754
(lp755
I0
ag1
(g11
g3
Ntp756
Rp757
(lp758
I1677161758
aI14305114
abag15
abag1
(g16
g3
Ntp759
Rp760
(lp761
g20
(g24
S'\x00\x00\x00@\x1f\xa8\xaa\xbf'
p762
tp763
Rp764
ag20
(g24
S'\x00\x00\x00@ 1\xac\xbf'
p765
tp766
Rp767
ag20
(g24
S'\x00\x00\x00\xc0t\x93\xe4?'
p768
tp769
Rp770
ababag1
(g2
g3
Ntp771
Rp772
(lp773
g1
(g7
g3
Ntp774
Rp775
(lp776
I0
ag1
(g11
g3
Ntp777
Rp778
(lp779
I1677161758
aI14312982
abag15
abag1
(g16
g3
Ntp780
Rp781
(lp782
g20
(g24
S'\x00\x00\x00\xc0\xf6\xa8_?'
p783
tp784
Rp785
ag20
(g24
S'\x00\x00\x00\xc0o\xa2\xac\xbf'
p786
tp787
Rp788
ag20
(g24
S'\x00\x00\x00 \xb0r\xe4?'
p789
tp790
Rp791
ababag1
(g2
g3
Ntp792
Rp793
(lp794
g1
(g7
g3
Ntp795
Rp796
(lp797
I0
ag1
(g11
g3
Ntp798
Rp799
(lp800
I1677161758
aI14322042
abag15
abag1
(g16
g3
Ntp801
Rp802
(lp803
g20
(g24
S'\x00\x00\x00\xa00\xcd\xab?'
p804
tp805
Rp806
ag20
(g24
S'\x00\x00\x00\xc0\xec4\xad\xbf'
p807
tp808
Rp809
ag20
(g24
S'\x00\x00\x00\x00\x7fj\xe4?'
p810
tp811
Rp812
ababag1
(g2
g3
Ntp813
Rp814
(lp815
g1
(g7
g3
Ntp816
Rp817
(lp818
I0
ag1
(g11
g3
Ntp819
Rp820
(lp821
I1677161758
aI14329910
abag15
abag1
(g16
g3
Ntp822
Rp823
(lp824
g20
(g24
S'\x00\x00\x00 b\xee\xbb?'
p825
tp826
Rp827
ag20
(g24
S'\x00\x00\x00`\xe2\xd2\xad\xbf'
p828
tp829
Rp830
ag20
(g24
S'\x00\x00\x00\x00\x7fj\xe4?'
p831
tp832
Rp833
ababag1
(g2
g3
Ntp834
Rp835
(lp836
g1
(g7
g3
Ntp837
Rp838
(lp839
I0
ag1
(g11
g3
Ntp840
Rp841
(lp842
I1677161758
aI14338970
abag15
abag1
(g16
g3
Ntp843
Rp844
(lp845
g20
(g24
S'\x00\x00\x00\xc0\xaa\xf2\xc4?'
p846
tp847
Rp848
ag20
(g24
S'\x00\x00\x00\xe0\xea\xc6\xad\xbf'
p849
tp850
Rp851
ag20
(g24
S'\x00\x00\x00\xe0Mb\xe4?'
p852
tp853
Rp854
ababag1
(g2
g3
Ntp855
Rp856
(lp857
g1
(g7
g3
Ntp858
Rp859
(lp860
I0
ag1
(g11
g3
Ntp861
Rp862
(lp863
I1677161758
aI14347076
abag15
abag1
(g16
g3
Ntp864
Rp865
(lp866
g20
(g24
S'\x00\x00\x00@\x13C\xcb\xbf'
p867
tp868
Rp869
ag20
(g24
S'\x00\x00\x00\xa0\x13s\x81\xbf'
p870
tp871
Rp872
ag20
(g24
S'\x00\x00\x00\x80\x14\xae\xe3?'
p873
tp874
Rp875
ababag1
(g2
g3
Ntp876
Rp877
(lp878
g1
(g7
g3
Ntp879
Rp880
(lp881
I0
ag1
(g11
g3
Ntp882
Rp883
(lp884
I1677161758
aI14354944
abag15
abag1
(g16
g3
Ntp885
Rp886
(lp887
g20
(g24
S'\x00\x00\x00\xa0\xfbP\xc4\xbf'
p888
tp889
Rp890
ag20
(g24
S'\x00\x00\x00@\xd0k\x81\xbf'
p891
tp892
Rp893
ag20
(g24
S'\x00\x00\x00`\xe3\xa5\xe3?'
p894
tp895
Rp896
ababag1
(g2
g3
Ntp897
Rp898
(lp899
g1
(g7
g3
Ntp900
Rp901
(lp902
I0
ag1
(g11
g3
Ntp903
Rp904
(lp905
I1677161758
aI14364004
abag15
abag1
(g16
g3
Ntp906
Rp907
(lp908
g20
(g24
S'\x00\x00\x00\xa0\x1a\xbe\xba\xbf'
p909
tp910
Rp911
ag20
(g24
S'\x00\x00\x00``\xbb\x83\xbf'
p912
tp913
Rp914
ag20
(g24
S'\x00\x00\x00\x00\x81\x95\xe3?'
p915
tp916
Rp917
ababag1
(g2
g3
Ntp918
Rp919
(lp920
g1
(g7
g3
Ntp921
Rp922
(lp923
I0
ag1
(g11
g3
Ntp924
Rp925
(lp926
I1677161758
aI14372110
abag15
abag1
(g16
g3
Ntp927
Rp928
(lp929
g20
(g24
S"\x00\x00\x00@'{\xaa\xbf"
p930
tp931
Rp932
ag20
(g24
S'\x00\x00\x00\x80\xfa\x06\x86\xbf'
p933
tp934
Rp935
ag20
(g24
S'\x00\x00\x00\xc0\x1e\x85\xe3?'
p936
tp937
Rp938
ababag1
(g2
g3
Ntp939
Rp940
(lp941
g1
(g7
g3
Ntp942
Rp943
(lp944
I0
ag1
(g11
g3
Ntp945
Rp946
(lp947
I1677161758
aI14379978
abag15
abag1
(g16
g3
Ntp948
Rp949
(lp950
g20
(g24
S'\x00\x00\x00\x00"9^?'
p951
tp952
Rp953
ag20
(g24
S'\x00\x00\x00`\x16c\x88\xbf'
p954
tp955
Rp956
ag20
(g24
S'\x00\x00\x00\xc0\x1e\x85\xe3?'
p957
tp958
Rp959
ababag1
(g2
g3
Ntp960
Rp961
(lp962
g1
(g7
g3
Ntp963
Rp964
(lp965
I0
ag1
(g11
g3
Ntp966
Rp967
(lp968
I1677161758
aI14388084
abag15
abag1
(g16
g3
Ntp969
Rp970
(lp971
g20
(g24
S'\x00\x00\x00\x80\xd1R\xac?'
p972
tp973
Rp974
ag20
(g24
S'\x00\x00\x00\xe0\xf8\xb3\x8a\xbf'
p975
tp976
Rp977
ag20
(g24
S'\x00\x00\x00\xa0\xed|\xe3?'
p978
tp979
Rp980
ababag1
(g2
g3
Ntp981
Rp982
(lp983
g1
(g7
g3
Ntp984
Rp985
(lp986
I0
ag1
(g11
g3
Ntp987
Rp988
(lp989
I1677161758
aI14395952
abag15
abag1
(g16
g3
Ntp990
Rp991
(lp992
g20
(g24
S'\x00\x00\x00 P&\xbc?'
p993
tp994
Rp995
ag20
(g24
S'\x00\x00\x00`\x17\x0f\x8d\xbf'
p996
tp997
Rp998
ag20
(g24
S'\x00\x00\x00\xa0\xed|\xe3?'
p999
tp1000
Rp1001
ababag1
(g2
g3
Ntp1002
Rp1003
(lp1004
g1
(g7
g3
Ntp1005
Rp1006
(lp1007
I0
ag1
(g11
g3
Ntp1008
Rp1009
(lp1010
I1677161758
aI14405012
abag15
abag1
(g16
g3
Ntp1011
Rp1012
(lp1013
g20
(g24
S'\x00\x00\x00\xa0\x83\xeb\xc4?'
p1014
tp1015
Rp1016
ag20
(g24
S'\x00\x00\x00`\x17\x0f\x8d\xbf'
p1017
tp1018
Rp1019
ag20
(g24
S'\x00\x00\x00\xa0\xed|\xe3?'
p1020
tp1021
Rp1022
ababag1
(g2
g3
Ntp1023
Rp1024
(lp1025
g1
(g7
g3
Ntp1026
Rp1027
(lp1028
I0
ag1
(g11
g3
Ntp1029
Rp1030
(lp1031
I1677161758
aI14413118
abag15
abag1
(g16
g3
Ntp1032
Rp1033
(lp1034
g20
(g24
S'\x00\x00\x00 \x88\x07\xcb\xbf'
p1035
tp1036
Rp1037
ag20
(g24
S'\x00\x00\x00\xc0\xb7\x03\xa3?'
p1038
tp1039
Rp1040
ag20
(g24
S'\x00\x00\x00\xc0 \xb0\xe2?'
p1041
tp1042
Rp1043
ababag1
(g2
g3
Ntp1044
Rp1045
(lp1046
g1
(g7
g3
Ntp1047
Rp1048
(lp1049
I0
ag1
(g11
g3
Ntp1050
Rp1051
(lp1052
I1677161758
aI14421939
abag15
abag1
(g16
g3
Ntp1053
Rp1054
(lp1055
g20
(g24
S'\x00\x00\x00@\xc3@\xc4\xbf'
p1056
tp1057
Rp1058
ag20
(g24
S'\x00\x00\x00\xa0\xdb\xd2\xa1?'
p1059
tp1060
Rp1061
ag20
(g24
S'\x00\x00\x00\x80\xbe\x9f\xe2?'
p1062
tp1063
Rp1064
ababag1
(g2
g3
Ntp1065
Rp1066
(lp1067
g1
(g7
g3
Ntp1068
Rp1069
(lp1070
I0
ag1
(g11
g3
Ntp1071
Rp1072
(lp1073
I1677161758
aI14430046
abag15
abag1
(g16
g3
Ntp1074
Rp1075
(lp1076
g20
(g24
S'\x00\x00\x00\xe0\xf1\xc2\xba\xbf'
p1077
tp1078
Rp1079
ag20
(g24
S'\x00\x00\x00\x00\x943\xa1?'
p1080
tp1081
Rp1082
ag20
(g24
S'\x00\x00\x00 \\\x8f\xe2?'
p1083
tp1084
Rp1085
ababag1
(g2
g3
Ntp1086
Rp1087
(lp1088
g1
(g7
g3
Ntp1089
Rp1090
(lp1091
I0
ag1
(g11
g3
Ntp1092
Rp1093
(lp1094
I1677161758
aI14441013
abag15
abag1
(g16
g3
Ntp1095
Rp1096
(lp1097
g20
(g24
S'\x00\x00\x00 \xc58\xaa\xbf'
p1098
tp1099
Rp1100
ag20
(g24
S'\x00\x00\x00\xe0I\x95\xa0?'
p1101
tp1102
Rp1103
ag20
(g24
S'\x00\x00\x00\xe0\xf9~\xe2?'
p1104
tp1105
Rp1106
ababag1
(g2
g3
Ntp1107
Rp1108
(lp1109
g1
(g7
g3
Ntp1110
Rp1111
(lp1112
I0
ag1
(g11
g3
Ntp1113
Rp1114
(lp1115
I1677161758
aI14450073
abag15
abag1
(g16
g3
Ntp1116
Rp1117
(lp1118
g20
(g24
S'\x00\x00\x00 @\xa3\\?'
p1119
tp1120
Rp1121
ag20
(g24
S'\x00\x00\x00 /\x06\xa0?'
p1122
tp1123
Rp1124
ag20
(g24
S'\x00\x00\x00\xe0\xf9~\xe2?'
p1125
tp1126
Rp1127
ababag1
(g2
g3
Ntp1128
Rp1129
(lp1130
g1
(g7
g3
Ntp1131
Rp1132
(lp1133
I0
ag1
(g11
g3
Ntp1134
Rp1135
(lp1136
I1677161758
aI14458894
abag15
abag1
(g16
g3
Ntp1137
Rp1138
(lp1139
g20
(g24
S'\x00\x00\x00`\xf0\x86\xac?'
p1140
tp1141
Rp1142
ag20
(g24
S'\x00\x00\x00\xe0u\xe0\x9e?'
p1143
tp1144
Rp1145
ag20
(g24
S'\x00\x00\x00\xc0\xc8v\xe2?'
p1146
tp1147
Rp1148
ababag1
(g2
g3
Ntp1149
Rp1150
(lp1151
g1
(g7
g3
Ntp1152
Rp1153
(lp1154
I0
ag1
(g11
g3
Ntp1155
Rp1156
(lp1157
I1677161758
aI14467954
abag15
abag1
(g16
g3
Ntp1158
Rp1159
(lp1160
g20
(g24
S'\x00\x00\x00 \x96\x14\xbc?'
p1161
tp1162
Rp1163
ag20
(g24
S'\x00\x00\x00\xe0u\xe0\x9e?'
p1164
tp1165
Rp1166
ag20
(g24
S'\x00\x00\x00\xc0\xc8v\xe2?'
p1167
tp1168
Rp1169
ababag1
(g2
g3
Ntp1170
Rp1171
(lp1172
g1
(g7
g3
Ntp1173
Rp1174
(lp1175
I0
ag1
(g11
g3
Ntp1176
Rp1177
(lp1178
I1677161758
aI14476060
abag15
abag1
(g16
g3
Ntp1179
Rp1180
(lp1181
g20
(g24
S'\x00\x00\x00@C\xe0\xc4?'
p1182
tp1183
Rp1184
ag20
(g24
S'\x00\x00\x00\xc0\x0f\xc5\x9e?'
p1185
tp1186
Rp1187
ag20
(g24
S'\x00\x00\x00`ff\xe2?'
p1188
tp1189
Rp1190
ababag1
(g2
g3
Ntp1191
Rp1192
(lp1193
g1
(g7
g3
Ntp1194
Rp1195
(lp1196
I0
ag1
(g11
g3
Ntp1197
Rp1198
(lp1199
I1677161758
aI14483928
abag15
abag1
(g16
g3
Ntp1200
Rp1201
(lp1202
g20
(g24
S'\x00\x00\x00\xe0\xab\xe5\xca\xbf'
p1203
tp1204
Rp1205
ag20
(g24
S'\x00\x00\x00`\xd8v\xb4?'
p1206
tp1207
Rp1208
ag20
(g24
S'\x00\x00\x00\xe0\xfb\xa9\xe1?'
p1209
tp1210
Rp1211
ababag1
(g2
g3
Ntp1212
Rp1213
(lp1214
g1
(g7
g3
Ntp1215
Rp1216
(lp1217
I0
ag1
(g11
g3
Ntp1218
Rp1219
(lp1220
I1677161758
aI14492034
abag15
abag1
(g16
g3
Ntp1221
Rp1222
(lp1223
g20
(g24
S'\x00\x00\x00 ,\x0b\xc4\xbf'
p1224
tp1225
Rp1226
ag20
(g24
S'\x00\x00\x00\xa0_Z\xb4?'
p1227
tp1228
Rp1229
ag20
(g24
S'\x00\x00\x00\x80h\x91\xe1?'
p1230
tp1231
Rp1232
ababag1
(g2
g3
Ntp1233
Rp1234
(lp1235
g1
(g7
g3
Ntp1236
Rp1237
(lp1238
I0
ag1
(g11
g3
Ntp1239
Rp1240
(lp1241
I1677161758
aI14499902
abag15
abag1
(g16
g3
Ntp1242
Rp1243
(lp1244
g20
(g24
S'\x00\x00\x00@\xc0\x9f\xba\xbf'
p1245
tp1246
Rp1247
ag20
(g24
S'\x00\x00\x00\xa04\xc9\xb3?'
p1248
tp1249
Rp1250
ag20
(g24
S'\x00\x00\x00@7\x89\xe1?'
p1251
tp1252
Rp1253
ababag1
(g2
g3
Ntp1254
Rp1255
(lp1256
g1
(g7
g3
Ntp1257
Rp1258
(lp1259
I0
ag1
(g11
g3
Ntp1260
Rp1261
(lp1262
I1677161758
aI14508962
abag15
abag1
(g16
g3
Ntp1263
Rp1264
(lp1265
g20
(g24
S'\x00\x00\x00\xa0\x96\xee\xa9\xbf'
p1266
tp1267
Rp1268
ag20
(g24
S'\x00\x00\x00\x00^\x85\xb3?'
p1269
tp1270
Rp1271
ag20
(g24
S'\x00\x00\x00@7\x89\xe1?'
p1272
tp1273
Rp1274
ababag1
(g2
g3
Ntp1275
Rp1276
(lp1277
g1
(g7
g3
Ntp1278
Rp1279
(lp1280
I0
ag1
(g11
g3
Ntp1281
Rp1282
(lp1283
I1677161758
aI14517068
abag15
abag1
(g16
g3
Ntp1284
Rp1285
(lp1286
g20
(g24
S'\x00\x00\x00`\x88\x10f?'
p1287
tp1288
Rp1289
ag20
(g24
S'\x00\x00\x00\xa0\x89/\xb3?'
p1290
tp1291
Rp1292
ag20
(g24
S'\x00\x00\x00\x00\xd5x\xe1?'
p1293
tp1294
Rp1295
ababag1
(g2
g3
Ntp1296
Rp1297
(lp1298
g1
(g7
g3
Ntp1299
Rp1300
(lp1301
I0
ag1
(g11
g3
Ntp1302
Rp1303
(lp1304
I1677161758
aI14524936
abag15
abag1
(g16
g3
Ntp1305
Rp1306
(lp1307
g20
(g24
S'\x00\x00\x00\xc0\n!\xad?'
p1308
tp1309
Rp1310
ag20
(g24
S'\x00\x00\x00`\xf2\xeb\xb2?'
p1311
tp1312
Rp1313
ag20
(g24
S'\x00\x00\x00\x00\xd5x\xe1?'
p1314
tp1315
Rp1316
ababag1
(g2
g3
Ntp1317
Rp1318
(lp1319
g1
(g7
g3
Ntp1320
Rp1321
(lp1322
I0
ag1
(g11
g3
Ntp1323
Rp1324
(lp1325
I1677161758
aI14533996
abag15
abag1
(g16
g3
Ntp1326
Rp1327
(lp1328
g20
(g24
S'\x00\x00\x00\xe07,\xbc?'
p1329
tp1330
Rp1331
ag20
(g24
S'\x00\x00\x00\x00[\xa8\xb2?'
p1332
tp1333
Rp1334
ag20
(g24
S'\x00\x00\x00\x00\xd5x\xe1?'
p1335
tp1336
Rp1337
ababag1
(g2
g3
Ntp1338
Rp1339
(lp1340
g1
(g7
g3
Ntp1341
Rp1342
(lp1343
I0
ag1
(g11
g3
Ntp1344
Rp1345
(lp1346
I1677161758
aI14544010
abag15
abag1
(g16
g3
Ntp1347
Rp1348
(lp1349
g20
(g24
S'\x00\x00\x00\x00A\xfc\xc4?'
p1350
tp1351
Rp1352
ag20
(g24
S'\x00\x00\x00\xa0\x9b\x9f\xb2?'
p1353
tp1354
Rp1355
ag20
(g24
S'\x00\x00\x00\xe0\xa3p\xe1?'
p1356
tp1357
Rp1358
ababa.