(lp0
ccopy_reg
_reconstructor
p1
(cgeometry_msgs.msg._PointStamped
PointStamped
p2
c__builtin__
object
p3
Ntp4
Rp5
(lp6
g1
(cstd_msgs.msg._Header
Header
p7
g3
Ntp8
Rp9
(lp10
I0
ag1
(crospy.rostime
Time
p11
g3
Ntp12
Rp13
(lp14
I1677161758
aI14553070
abaS'xtion_rgb_optical_frame'
p15
abag1
(cgeometry_msgs.msg._Point
Point
p16
g3
Ntp17
Rp18
(lp19
cnumpy.core.multiarray
scalar
p20
(cnumpy
dtype
p21
(S'f8'
p22
I0
I1
tp23
Rp24
(I3
S'<'
p25
NNNI-1
I-1
I0
tp26
bS'\x00\x00\x00\x80\xbe\x1f\xd0?'
p27
tp28
Rp29
ag20
(g24
S'\x00\x00\x00\xa0\x04\xa1\xd3\xbf'
p30
tp31
Rp32
ag20
(g24
S'\x00\x00\x00\xc0\xc8v\xea?'
p33
tp34
Rp35
ababag1
(g2
g3
Ntp36
Rp37
(lp38
g1
(g7
g3
Ntp39
Rp40
(lp41
I0
ag1
(g11
g3
Ntp42
Rp43
(lp44
I1677161758
aI14561891
abag15
abag1
(g16
g3
Ntp45
Rp46
(lp47
g20
(g24
S'\x00\x00\x00\xa0{\x1e\xd3\xbf'
p48
tp49
Rp50
ag20
(g24
S'\x00\x00\x00`\x97k\xd3\xbf'
p51
tp52
Rp53
ag20
(g24
S'\x00\x00\x00@\x0c\x02\xeb?'
p54
tp55
Rp56
ababag1
(g2
g3
Ntp57
Rp58
(lp59
g1
(g7
g3
Ntp60
Rp61
(lp62
I0
ag1
(g11
g3
Ntp63
Rp64
(lp65
I1677161758
aI14569997
abag15
abag1
(g16
g3
Ntp66
Rp67
(lp68
g20
(g24
S'\x00\x00\x00\x00\x00\x00\xf8\x7f'
p69
tp70
Rp71
ag20
(g24
S'\x00\x00\x00\x00\x00\x00\xf8\x7f'
p72
tp73
Rp74
ag20
(g24
S'\x00\x00\x00\x00\x00\x00\xf8\x7f'
p75
tp76
Rp77
ababag1
(g2
g3
Ntp78
Rp79
(lp80
g1
(g7
g3
Ntp81
Rp82
(lp83
I0
ag1
(g11
g3
Ntp84
Rp85
(lp86
I1677161758
aI14578104
abag15
abag1
(g16
g3
Ntp87
Rp88
(lp89
g20
(g24
S'\x00\x00\x00`q\xd9\xcf?'
p90
tp91
Rp92
ag20
(g24
S'\x00\x00\x00\xa0\x8dB\xc2?'
p93
tp94
Rp95
ag20
(g24
S'\x00\x00\x00@\x89A\xe0?'
p96
tp97
Rp98
ababa.